; ModuleID = '49/813.c'
source_filename = "49/813.c"
target datalayout = "e-m:e-p270:32:32-p271:32:32-p272:64:64-i64:64-f80:128-n8:16:32:64-S128"
target triple = "x86_64-pc-linux-gnu"

@.str = private unnamed_addr constant [2 x i8] c"\0A\00", align 1

; Function Attrs: noinline nounwind uwtable
define dso_local i32 @main() #0 {
  %1 = alloca i32, align 4
  %2 = alloca i32, align 4
  %3 = alloca i32, align 4
  %4 = alloca i32, align 4
  %5 = alloca i32, align 4
  %6 = alloca i32, align 4
  %7 = alloca i32, align 4
  %8 = alloca [501 x i8], align 16
  store i32 0, i32* %1, align 4
  store i32 1, i32* %4, align 4
  %9 = getelementptr inbounds [501 x i8], [501 x i8]* %8, i64 0, i64 0
  %10 = call i32 (i8*, ...) bitcast (i32 (...)* @gets to i32 (i8*, ...)*)(i8* %9)
  %11 = getelementptr inbounds [501 x i8], [501 x i8]* %8, i64 0, i64 0
  %12 = call i64 @strlen(i8* %11) #3
  %13 = trunc i64 %12 to i32
  store i32 %13, i32* %5, align 4
  store i32 1, i32* %6, align 4
  br label %14

14:                                               ; preds = %91, %0
  %15 = load i32, i32* %6, align 4
  %16 = load i32, i32* %5, align 4
  %17 = icmp slt i32 %15, %16
  br i1 %17, label %18, label %94

18:                                               ; preds = %14
  store i32 0, i32* %2, align 4
  br label %19

19:                                               ; preds = %87, %18
  %20 = load i32, i32* %2, align 4
  %21 = load i32, i32* %5, align 4
  %22 = icmp slt i32 %20, %21
  br i1 %22, label %23, label %90

23:                                               ; preds = %19
  %24 = load i32, i32* %2, align 4
  %25 = load i32, i32* %6, align 4
  %26 = add nsw i32 %24, %25
  store i32 %26, i32* %3, align 4
  %27 = load i32, i32* %2, align 4
  %28 = sext i32 %27 to i64
  %29 = getelementptr inbounds [501 x i8], [501 x i8]* %8, i64 0, i64 %28
  %30 = load i8, i8* %29, align 1
  %31 = sext i8 %30 to i32
  %32 = load i32, i32* %3, align 4
  %33 = sext i32 %32 to i64
  %34 = getelementptr inbounds [501 x i8], [501 x i8]* %8, i64 0, i64 %33
  %35 = load i8, i8* %34, align 1
  %36 = sext i8 %35 to i32
  %37 = icmp eq i32 %31, %36
  br i1 %37, label %38, label %86

38:                                               ; preds = %23
  %39 = load i32, i32* %6, align 4
  store i32 %39, i32* %4, align 4
  br label %40

40:                                               ; preds = %61, %38
  %41 = load i32, i32* %4, align 4
  %42 = icmp sgt i32 %41, 0
  br i1 %42, label %43, label %64

43:                                               ; preds = %40
  %44 = load i32, i32* %2, align 4
  %45 = load i32, i32* %4, align 4
  %46 = add nsw i32 %44, %45
  %47 = sext i32 %46 to i64
  %48 = getelementptr inbounds [501 x i8], [501 x i8]* %8, i64 0, i64 %47
  %49 = load i8, i8* %48, align 1
  %50 = sext i8 %49 to i32
  %51 = load i32, i32* %3, align 4
  %52 = load i32, i32* %4, align 4
  %53 = sub nsw i32 %51, %52
  %54 = sext i32 %53 to i64
  %55 = getelementptr inbounds [501 x i8], [501 x i8]* %8, i64 0, i64 %54
  %56 = load i8, i8* %55, align 1
  %57 = sext i8 %56 to i32
  %58 = icmp ne i32 %50, %57
  br i1 %58, label %59, label %60

59:                                               ; preds = %43
  store i32 1, i32* %4, align 4
  br label %64

60:                                               ; preds = %43
  br label %61

61:                                               ; preds = %60
  %62 = load i32, i32* %4, align 4
  %63 = add nsw i32 %62, -1
  store i32 %63, i32* %4, align 4
  br label %40

64:                                               ; preds = %59, %40
  %65 = load i32, i32* %4, align 4
  %66 = icmp eq i32 %65, 0
  br i1 %66, label %67, label %85

67:                                               ; preds = %64
  %68 = load i32, i32* %2, align 4
  store i32 %68, i32* %7, align 4
  br label %69

69:                                               ; preds = %80, %67
  %70 = load i32, i32* %7, align 4
  %71 = load i32, i32* %3, align 4
  %72 = icmp sle i32 %70, %71
  br i1 %72, label %73, label %83

73:                                               ; preds = %69
  %74 = load i32, i32* %7, align 4
  %75 = sext i32 %74 to i64
  %76 = getelementptr inbounds [501 x i8], [501 x i8]* %8, i64 0, i64 %75
  %77 = load i8, i8* %76, align 1
  %78 = sext i8 %77 to i32
  %79 = call i32 @putchar(i32 %78)
  br label %80

80:                                               ; preds = %73
  %81 = load i32, i32* %7, align 4
  %82 = add nsw i32 %81, 1
  store i32 %82, i32* %7, align 4
  br label %69

83:                                               ; preds = %69
  %84 = call i32 (i8*, ...) @printf(i8* getelementptr inbounds ([2 x i8], [2 x i8]* @.str, i64 0, i64 0))
  br label %85

85:                                               ; preds = %83, %64
  br label %86

86:                                               ; preds = %85, %23
  br label %87

87:                                               ; preds = %86
  %88 = load i32, i32* %2, align 4
  %89 = add nsw i32 %88, 1
  store i32 %89, i32* %2, align 4
  br label %19

90:                                               ; preds = %19
  br label %91

91:                                               ; preds = %90
  %92 = load i32, i32* %6, align 4
  %93 = add nsw i32 %92, 1
  store i32 %93, i32* %6, align 4
  br label %14

94:                                               ; preds = %14
  ret i32 0
}

declare dso_local i32 @gets(...) #1

; Function Attrs: nounwind readonly
declare dso_local i64 @strlen(i8*) #2

declare dso_local i32 @putchar(i32) #1

declare dso_local i32 @printf(i8*, ...) #1


!llvm.module.flags = !{!0}
!llvm.ident = !{!1}

!0 = !{i32 1, !"wchar_size", i32 4}
!1 = !{!"clang version 10.0.0-4ubuntu1 "}
